target datalayout = "e-m:e-p270:32:32-p271:32:32-p272:64:64-i64:64-i128:128-f80:128-n8:16:32:64-S128"
target triple = "x86_64-pc-linux-gnu"

@.str.1 = private unnamed_addr constant [18 x i8] c"rangetypes_gist.c\00", align 1
@.str.2 = private unnamed_addr constant [32 x i8] c"unrecognized range strategy: %d\00", align 1
@__func__.range_gist_consistent_int_range = private unnamed_addr constant [32 x i8] c"range_gist_consistent_int_range\00", align 1

; Function Attrs: nounwind uwtable
define internal zeroext i1 @range_gist_consistent_int_range(ptr noundef %0, i16 noundef zeroext %1, ptr noundef %2, ptr noundef %3) #0 {
  %5 = alloca i1, align 1
  %6 = alloca ptr, align 8
  %7 = alloca i16, align 2
  %8 = alloca ptr, align 8
  %9 = alloca ptr, align 8
  store ptr %0, ptr %6, align 8
  store i16 %1, ptr %7, align 2
  store ptr %2, ptr %8, align 8
  store ptr %3, ptr %9, align 8
  %10 = load i16, ptr %7, align 2
  %11 = zext i16 %10 to i32
  switch i32 %11, label %151 [
    i32 1, label %12
    i32 2, label %31
    i32 3, label %50
    i32 4, label %55
    i32 5, label %74
    i32 6, label %93
    i32 7, label %117
    i32 8, label %122
    i32 18, label %134
  ]

12:                                               ; preds = %4
  %13 = load ptr, ptr %8, align 8
  %14 = call signext i8 @range_get_flags(ptr noundef %13)
  %15 = sext i8 %14 to i32
  %16 = and i32 %15, 1
  %17 = icmp ne i32 %16, 0
  br i1 %17, label %24, label %18

18:                                               ; preds = %12
  %19 = load ptr, ptr %9, align 8
  %20 = call signext i8 @range_get_flags(ptr noundef %19)
  %21 = sext i8 %20 to i32
  %22 = and i32 %21, 1
  %23 = icmp ne i32 %22, 0
  br i1 %23, label %24, label %25

24:                                               ; preds = %18, %12
  store i1 false, ptr %5, align 1
  br label %163

25:                                               ; preds = %18
  %26 = load ptr, ptr %6, align 8
  %27 = load ptr, ptr %8, align 8
  %28 = load ptr, ptr %9, align 8
  %29 = call zeroext i1 @range_overright_internal(ptr noundef %26, ptr noundef %27, ptr noundef %28)
  %30 = xor i1 %29, true
  store i1 %30, ptr %5, align 1
  br label %163

31:                                               ; preds = %4
  %32 = load ptr, ptr %8, align 8
  %33 = call signext i8 @range_get_flags(ptr noundef %32)
  %34 = sext i8 %33 to i32
  %35 = and i32 %34, 1
  %36 = icmp ne i32 %35, 0
  br i1 %36, label %43, label %37

37:                                               ; preds = %31
  %38 = load ptr, ptr %9, align 8
  %39 = call signext i8 @range_get_flags(ptr noundef %38)
  %40 = sext i8 %39 to i32
  %41 = and i32 %40, 1
  %42 = icmp ne i32 %41, 0
  br i1 %42, label %43, label %44

43:                                               ; preds = %37, %31
  store i1 false, ptr %5, align 1
  br label %163

44:                                               ; preds = %37
  %45 = load ptr, ptr %6, align 8
  %46 = load ptr, ptr %8, align 8
  %47 = load ptr, ptr %9, align 8
  %48 = call zeroext i1 @range_after_internal(ptr noundef %45, ptr noundef %46, ptr noundef %47)
  %49 = xor i1 %48, true
  store i1 %49, ptr %5, align 1
  br label %163

50:                                               ; preds = %4
  %51 = load ptr, ptr %6, align 8
  %52 = load ptr, ptr %8, align 8
  %53 = load ptr, ptr %9, align 8
  %54 = call zeroext i1 @range_overlaps_internal(ptr noundef %51, ptr noundef %52, ptr noundef %53)
  store i1 %54, ptr %5, align 1
  br label %163

55:                                               ; preds = %4
  %56 = load ptr, ptr %8, align 8
  %57 = call signext i8 @range_get_flags(ptr noundef %56)
  %58 = sext i8 %57 to i32
  %59 = and i32 %58, 1
  %60 = icmp ne i32 %59, 0
  br i1 %60, label %67, label %61

61:                                               ; preds = %55
  %62 = load ptr, ptr %9, align 8
  %63 = call signext i8 @range_get_flags(ptr noundef %62)
  %64 = sext i8 %63 to i32
  %65 = and i32 %64, 1
  %66 = icmp ne i32 %65, 0
  br i1 %66, label %67, label %68

67:                                               ; preds = %61, %55
  store i1 false, ptr %5, align 1
  br label %163

68:                                               ; preds = %61
  %69 = load ptr, ptr %6, align 8
  %70 = load ptr, ptr %8, align 8
  %71 = load ptr, ptr %9, align 8
  %72 = call zeroext i1 @range_before_internal(ptr noundef %69, ptr noundef %70, ptr noundef %71)
  %73 = xor i1 %72, true
  store i1 %73, ptr %5, align 1
  br label %163

74:                                               ; preds = %4
  %75 = load ptr, ptr %8, align 8
  %76 = call signext i8 @range_get_flags(ptr noundef %75)
  %77 = sext i8 %76 to i32
  %78 = and i32 %77, 1
  %79 = icmp ne i32 %78, 0
  br i1 %79, label %86, label %80

80:                                               ; preds = %74
  %81 = load ptr, ptr %9, align 8
  %82 = call signext i8 @range_get_flags(ptr noundef %81)
  %83 = sext i8 %82 to i32
  %84 = and i32 %83, 1
  %85 = icmp ne i32 %84, 0
  br i1 %85, label %86, label %87

86:                                               ; preds = %80, %74
  store i1 false, ptr %5, align 1
  br label %163

87:                                               ; preds = %80
  %88 = load ptr, ptr %6, align 8
  %89 = load ptr, ptr %8, align 8
  %90 = load ptr, ptr %9, align 8
  %91 = call zeroext i1 @range_overleft_internal(ptr noundef %88, ptr noundef %89, ptr noundef %90)
  %92 = xor i1 %91, true
  store i1 %92, ptr %5, align 1
  br label %163

93:                                               ; preds = %4
  %94 = load ptr, ptr %8, align 8
  %95 = call signext i8 @range_get_flags(ptr noundef %94)
  %96 = sext i8 %95 to i32
  %97 = and i32 %96, 1
  %98 = icmp ne i32 %97, 0
  br i1 %98, label %105, label %99

99:                                               ; preds = %93
  %100 = load ptr, ptr %9, align 8
  %101 = call signext i8 @range_get_flags(ptr noundef %100)
  %102 = sext i8 %101 to i32
  %103 = and i32 %102, 1
  %104 = icmp ne i32 %103, 0
  br i1 %104, label %105, label %106

105:                                              ; preds = %99, %93
  store i1 false, ptr %5, align 1
  br label %163

106:                                              ; preds = %99
  %107 = load ptr, ptr %6, align 8
  %108 = load ptr, ptr %8, align 8
  %109 = load ptr, ptr %9, align 8
  %110 = call zeroext i1 @range_adjacent_internal(ptr noundef %107, ptr noundef %108, ptr noundef %109)
  br i1 %110, label %111, label %112

111:                                              ; preds = %106
  store i1 true, ptr %5, align 1
  br label %163

112:                                              ; preds = %106
  %113 = load ptr, ptr %6, align 8
  %114 = load ptr, ptr %8, align 8
  %115 = load ptr, ptr %9, align 8
  %116 = call zeroext i1 @range_overlaps_internal(ptr noundef %113, ptr noundef %114, ptr noundef %115)
  store i1 %116, ptr %5, align 1
  br label %163

117:                                              ; preds = %4
  %118 = load ptr, ptr %6, align 8
  %119 = load ptr, ptr %8, align 8
  %120 = load ptr, ptr %9, align 8
  %121 = call zeroext i1 @range_contains_internal(ptr noundef %118, ptr noundef %119, ptr noundef %120)
  store i1 %121, ptr %5, align 1
  br label %163

122:                                              ; preds = %4
  %123 = load ptr, ptr %8, align 8
  %124 = call signext i8 @range_get_flags(ptr noundef %123)
  %125 = sext i8 %124 to i32
  %126 = and i32 %125, 129
  %127 = icmp ne i32 %126, 0
  br i1 %127, label %128, label %129

128:                                              ; preds = %122
  store i1 true, ptr %5, align 1
  br label %163

129:                                              ; preds = %122
  %130 = load ptr, ptr %6, align 8
  %131 = load ptr, ptr %8, align 8
  %132 = load ptr, ptr %9, align 8
  %133 = call zeroext i1 @range_overlaps_internal(ptr noundef %130, ptr noundef %131, ptr noundef %132)
  store i1 %133, ptr %5, align 1
  br label %163

134:                                              ; preds = %4
  %135 = load ptr, ptr %9, align 8
  %136 = call signext i8 @range_get_flags(ptr noundef %135)
  %137 = sext i8 %136 to i32
  %138 = and i32 %137, 1
  %139 = icmp ne i32 %138, 0
  br i1 %139, label %140, label %146

140:                                              ; preds = %134
  %141 = load ptr, ptr %8, align 8
  %142 = call signext i8 @range_get_flags(ptr noundef %141)
  %143 = sext i8 %142 to i32
  %144 = and i32 %143, 129
  %145 = icmp ne i32 %144, 0
  store i1 %145, ptr %5, align 1
  br label %163

146:                                              ; preds = %134
  %147 = load ptr, ptr %6, align 8
  %148 = load ptr, ptr %8, align 8
  %149 = load ptr, ptr %9, align 8
  %150 = call zeroext i1 @range_contains_internal(ptr noundef %147, ptr noundef %148, ptr noundef %149)
  store i1 %150, ptr %5, align 1
  br label %163

151:                                              ; preds = %4
  br label %152

152:                                              ; preds = %151
  br i1 true, label %153, label %155

153:                                              ; preds = %152
  %154 = call zeroext i1 @errstart_cold(i32 noundef 21, ptr noundef null) #9
  br i1 %154, label %157, label %161

155:                                              ; preds = %152
  %156 = call zeroext i1 @errstart(i32 noundef 21, ptr noundef null)
  br i1 %156, label %157, label %161

157:                                              ; preds = %155, %153
  %158 = load i16, ptr %7, align 2
  %159 = zext i16 %158 to i32
  %160 = call i32 (ptr, ...) @errmsg_internal(ptr noundef @.str.2, i32 noundef %159)
  call void @errfinish(ptr noundef @.str.1, i32 noundef 968, ptr noundef @__func__.range_gist_consistent_int_range)
  br label %161

161:                                              ; preds = %157, %155, %153
  unreachable

162:                                              ; No predecessors!
  store i1 false, ptr %5, align 1
  br label %163

163:                                              ; preds = %162, %146, %140, %129, %128, %117, %112, %111, %105, %87, %86, %68, %67, %50, %44, %43, %25, %24
  %164 = load i1, ptr %5, align 1
  ret i1 %164
}