; Function Attrs: nounwind uwtable
define internal fastcc zeroext i1 @range_gist_consistent_int_range(ptr noundef %0, i16 noundef zeroext %1, ptr noundef %2, ptr noundef %3) unnamed_addr #0 {
  switch i16 %1, label %69 [
    i16 1, label %5
    i16 2, label %14
    i16 3, label %23
    i16 4, label %25
    i16 5, label %34
    i16 6, label %43
    i16 7, label %53
    i16 8, label %55
    i16 18, label %60
  ]

5:                                                ; preds = %4
  %6 = tail call signext i8 @range_get_flags(ptr noundef %2) #10
  %7 = and i8 %6, 1
  %.not54 = icmp eq i8 %7, 0
  br i1 %.not54, label %8, label %73

8:                                                ; preds = %5
  %9 = tail call signext i8 @range_get_flags(ptr noundef %3) #10
  %10 = and i8 %9, 1
  %.not55 = icmp eq i8 %10, 0
  br i1 %.not55, label %11, label %73

11:                                               ; preds = %8
  %12 = tail call zeroext i1 @range_overright_internal(ptr noundef %0, ptr noundef %2, ptr noundef %3) #10
  %13 = xor i1 %12, true
  br label %73

14:                                               ; preds = %4
  %15 = tail call signext i8 @range_get_flags(ptr noundef %2) #10
  %16 = and i8 %15, 1
  %.not52 = icmp eq i8 %16, 0
  br i1 %.not52, label %17, label %73

17:                                               ; preds = %14
  %18 = tail call signext i8 @range_get_flags(ptr noundef %3) #10
  %19 = and i8 %18, 1
  %.not53 = icmp eq i8 %19, 0
  br i1 %.not53, label %20, label %73

20:                                               ; preds = %17
  %21 = tail call zeroext i1 @range_after_internal(ptr noundef %0, ptr noundef %2, ptr noundef %3) #10
  %22 = xor i1 %21, true
  br label %73

23:                                               ; preds = %4
  %24 = tail call zeroext i1 @range_overlaps_internal(ptr noundef %0, ptr noundef %2, ptr noundef %3) #10
  br label %73

25:                                               ; preds = %4
  %26 = tail call signext i8 @range_get_flags(ptr noundef %2) #10
  %27 = and i8 %26, 1
  %.not50 = icmp eq i8 %27, 0
  br i1 %.not50, label %28, label %73

28:                                               ; preds = %25
  %29 = tail call signext i8 @range_get_flags(ptr noundef %3) #10
  %30 = and i8 %29, 1
  %.not51 = icmp eq i8 %30, 0
  br i1 %.not51, label %31, label %73

31:                                               ; preds = %28
  %32 = tail call zeroext i1 @range_before_internal(ptr noundef %0, ptr noundef %2, ptr noundef %3) #10
  %33 = xor i1 %32, true
  br label %73

34:                                               ; preds = %4
  %35 = tail call signext i8 @range_get_flags(ptr noundef %2) #10
  %36 = and i8 %35, 1
  %.not48 = icmp eq i8 %36, 0
  br i1 %.not48, label %37, label %73

37:                                               ; preds = %34
  %38 = tail call signext i8 @range_get_flags(ptr noundef %3) #10
  %39 = and i8 %38, 1
  %.not49 = icmp eq i8 %39, 0
  br i1 %.not49, label %40, label %73

40:                                               ; preds = %37
  %41 = tail call zeroext i1 @range_overleft_internal(ptr noundef %0, ptr noundef %2, ptr noundef %3) #10
  %42 = xor i1 %41, true
  br label %73

43:                                               ; preds = %4
  %44 = tail call signext i8 @range_get_flags(ptr noundef %2) #10
  %45 = and i8 %44, 1
  %.not46 = icmp eq i8 %45, 0
  br i1 %.not46, label %46, label %73

46:                                               ; preds = %43
  %47 = tail call signext i8 @range_get_flags(ptr noundef %3) #10
  %48 = and i8 %47, 1
  %.not47 = icmp eq i8 %48, 0
  br i1 %.not47, label %49, label %73

49:                                               ; preds = %46
  %50 = tail call zeroext i1 @range_adjacent_internal(ptr noundef %0, ptr noundef %2, ptr noundef %3) #10
  br i1 %50, label %73, label %51

51:                                               ; preds = %49
  %52 = tail call zeroext i1 @range_overlaps_internal(ptr noundef %0, ptr noundef %2, ptr noundef %3) #10
  br label %73

53:                                               ; preds = %4
  %54 = tail call zeroext i1 @range_contains_internal(ptr noundef %0, ptr noundef %2, ptr noundef %3) #10
  br label %73

55:                                               ; preds = %4
  %56 = tail call signext i8 @range_get_flags(ptr noundef %2) #10
  %57 = and i8 %56, -127
  %.not45 = icmp eq i8 %57, 0
  br i1 %.not45, label %58, label %73

58:                                               ; preds = %55
  %59 = tail call zeroext i1 @range_overlaps_internal(ptr noundef %0, ptr noundef %2, ptr noundef %3) #10
  br label %73

60:                                               ; preds = %4
  %61 = tail call signext i8 @range_get_flags(ptr noundef %3) #10
  %62 = and i8 %61, 1
  %.not = icmp eq i8 %62, 0
  br i1 %.not, label %67, label %63

63:                                               ; preds = %60
  %64 = tail call signext i8 @range_get_flags(ptr noundef %2) #10
  %65 = and i8 %64, -127
  %66 = icmp ne i8 %65, 0
  br label %73

67:                                               ; preds = %60
  %68 = tail call zeroext i1 @range_contains_internal(ptr noundef %0, ptr noundef %2, ptr noundef %3) #10
  br label %73

69:                                               ; preds = %4
  %70 = zext i16 %1 to i32
  %71 = tail call zeroext i1 @errstart_cold(i32 noundef 21, ptr noundef null) #11
  tail call void @llvm.assume(i1 %71)
  %72 = tail call i32 (ptr, ...) @errmsg_internal(ptr noundef nonnull @.str.2, i32 noundef %70) #10
  tail call void @errfinish(ptr noundef nonnull @.str.1, i32 noundef 968, ptr noundef nonnull @__func__.range_gist_consistent_int_range) #10
  unreachable

73:                                               ; preds = %55, %49, %43, %46, %34, %37, %25, %28, %14, %17, %5, %8, %67, %63, %58, %53, %51, %40, %31, %23, %20, %11
  %.0 = phi i1 [ %66, %63 ], [ %68, %67 ], [ %59, %58 ], [ %54, %53 ], [ %52, %51 ], [ %42, %40 ], [ %33, %31 ], [ %24, %23 ], [ %22, %20 ], [ %13, %11 ], [ false, %8 ], [ false, %5 ], [ false, %17 ], [ false, %14 ], [ false, %28 ], [ false, %25 ], [ false, %37 ], [ false, %34 ], [ false, %46 ], [ false, %43 ], [ true, %49 ], [ true, %55 ]
  ret i1 %.0
}